; Function Attrs: mustprogress uwtable
define internal void @"_ZNSt17_Function_handlerIFvN3gmx8ArrayRefIKfEENS0_35ReferenceTemperatureChangeAlgorithmEEZNS0_38ModularSimulatorAlgorithmBuilderHelper34changeReferenceTemperatureCallbackEvE3$_0E9_M_invokeERKSt9_Any_dataOS3_OS4_"(ptr nocapture noundef nonnull readonly align 8 dereferenceable(16) %0, ptr nocapture noundef nonnull readonly align 8 dereferenceable(16) %1, ptr nocapture noundef nonnull readonly align 4 dereferenceable(4) %2) #3 align 2 {
  %.val = load ptr, ptr %0, align 8
  %.val3 = load ptr, ptr %1, align 8
  %4 = getelementptr inbounds i8, ptr %1, i64 8
  %.val4 = load ptr, ptr %4, align 8
  %.val5 = load i32, ptr %2, align 4
  %5 = ptrtoint ptr %.val4 to i64
  %6 = ptrtoint ptr %.val3 to i64
  %7 = sub i64 %5, %6
  %8 = getelementptr inbounds i8, ptr %.val3, i64 %7
  tail call void @_ZN3gmx27ReferenceTemperatureManager23setReferenceTemperatureENS_8ArrayRefIKfEENS_35ReferenceTemperatureChangeAlgorithmE(ptr noundef nonnull align 8 dereferenceable(32) %.val, ptr %.val3, ptr %8, i32 noundef %.val5)
  ret void
}